target datalayout = "e-m:e-p270:32:32-p271:32:32-p272:64:64-i64:64-i128:128-f80:128-n8:16:32:64-S128"
target triple = "x86_64-pc-linux-gnu"

%struct.IDAMemRec = type { double, ptr, ptr, i32, double, double, ptr, i32, ptr, ptr, i32, ptr, ptr, i32, i32, double, double, ptr, i32, i32, i32, ptr, ptr, i32, ptr, ptr, ptr, i32, double, i32, i32, double, ptr, ptr, i32, ptr, ptr, i32, i32, i32, double, ptr, ptr, [6 x ptr], [6 x double], [6 x double], [6 x double], [6 x double], [6 x double], ptr, ptr, ptr, ptr, ptr, ptr, ptr, ptr, ptr, ptr, ptr, ptr, ptr, ptr, ptr, [6 x ptr], ptr, ptr, ptr, ptr, [6 x ptr], ptr, ptr, ptr, ptr, ptr, ptr, ptr, ptr, ptr, ptr, ptr, ptr, ptr, ptr, [6 x ptr], ptr, ptr, ptr, ptr, ptr, double, ptr, ptr, i32, i32, i32, i32, i32, i32, i32, double, double, double, i32, double, i32, i32, i32, i32, double, double, double, double, double, double, double, double, double, double, double, double, double, double, i32, i32, i32, i32, i32, i64, double, i32, i64, i64, i64, i64, i64, i64, i64, i64, i64, i64, i64, i64, i64, i64, i64, i64, i64, i64, i64, i64, i64, i64, i64, i64, ptr, ptr, ptr, i32, i32, i32, i32, i32, i32, i32, i32, i32, i32, i32, i32, i32, ptr, ptr, ptr, ptr, ptr, ptr, i32, i32, i32, i32, i32, i32, double, double, double, ptr, i32, ptr, ptr, double, double, double, ptr, ptr, ptr, double, double, i32, i32, i64, ptr, i32, i32, ptr, i32 }

; Function Attrs: nounwind uwtable
define internal i32 @IDARcheck1(ptr noundef %0) #0 {
  %2 = alloca i32, align 4
  %3 = alloca ptr, align 8
  %4 = alloca i32, align 4
  %5 = alloca i32, align 4
  %6 = alloca double, align 8
  %7 = alloca double, align 8
  %8 = alloca double, align 8
  %9 = alloca i32, align 4
  %10 = alloca i32, align 4
  store ptr %0, ptr %3, align 8, !tbaa !3
  call void @llvm.lifetime.start.p0(i64 4, ptr %4) #8
  call void @llvm.lifetime.start.p0(i64 4, ptr %5) #8
  call void @llvm.lifetime.start.p0(i64 8, ptr %6) #8
  call void @llvm.lifetime.start.p0(i64 8, ptr %7) #8
  call void @llvm.lifetime.start.p0(i64 8, ptr %8) #8
  call void @llvm.lifetime.start.p0(i64 4, ptr %9) #8
  store i32 0, ptr %4, align 4, !tbaa !88
  br label %11

11:                                               ; preds = %24, %1
  %12 = load i32, ptr %4, align 4, !tbaa !88
  %13 = load ptr, ptr %3, align 8, !tbaa !3
  %14 = getelementptr inbounds nuw %struct.IDAMemRec, ptr %13, i32 0, i32 187
  %15 = load i32, ptr %14, align 8, !tbaa !132
  %16 = icmp slt i32 %12, %15
  br i1 %16, label %17, label %27

17:                                               ; preds = %11
  %18 = load ptr, ptr %3, align 8, !tbaa !3
  %19 = getelementptr inbounds nuw %struct.IDAMemRec, ptr %18, i32 0, i32 188
  %20 = load ptr, ptr %19, align 8, !tbaa !129
  %21 = load i32, ptr %4, align 4, !tbaa !88
  %22 = sext i32 %21 to i64
  %23 = getelementptr inbounds i32, ptr %20, i64 %22
  store i32 0, ptr %23, align 4, !tbaa !88
  br label %24

24:                                               ; preds = %17
  %25 = load i32, ptr %4, align 4, !tbaa !88
  %26 = add nsw i32 %25, 1
  store i32 %26, ptr %4, align 4, !tbaa !88
  br label %11, !llvm.loop !241

27:                                               ; preds = %11
  %28 = load ptr, ptr %3, align 8, !tbaa !3
  %29 = getelementptr inbounds nuw %struct.IDAMemRec, ptr %28, i32 0, i32 112
  %30 = load double, ptr %29, align 8, !tbaa !106
  %31 = load ptr, ptr %3, align 8, !tbaa !3
  %32 = getelementptr inbounds nuw %struct.IDAMemRec, ptr %31, i32 0, i32 190
  store double %30, ptr %32, align 8, !tbaa !236
  %33 = load ptr, ptr %3, align 8, !tbaa !3
  %34 = getelementptr inbounds nuw %struct.IDAMemRec, ptr %33, i32 0, i32 112
  %35 = load double, ptr %34, align 8, !tbaa !106
  %36 = call double @SUNRabs(double noundef %35)
  %37 = load ptr, ptr %3, align 8, !tbaa !3
  %38 = getelementptr inbounds nuw %struct.IDAMemRec, ptr %37, i32 0, i32 110
  %39 = load double, ptr %38, align 8, !tbaa !228
  %40 = call double @SUNRabs(double noundef %39)
  %41 = fadd double %36, %40
  %42 = load ptr, ptr %3, align 8, !tbaa !3
  %43 = getelementptr inbounds nuw %struct.IDAMemRec, ptr %42, i32 0, i32 0
  %44 = load double, ptr %43, align 8, !tbaa !8
  %45 = fmul double %41, %44
  %46 = fmul double %45, 1.000000e+02
  %47 = load ptr, ptr %3, align 8, !tbaa !3
  %48 = getelementptr inbounds nuw %struct.IDAMemRec, ptr %47, i32 0, i32 197
  store double %46, ptr %48, align 8, !tbaa !242
  %49 = load ptr, ptr %3, align 8, !tbaa !3
  %50 = getelementptr inbounds nuw %struct.IDAMemRec, ptr %49, i32 0, i32 186
  %51 = load ptr, ptr %50, align 8, !tbaa !131
  %52 = load ptr, ptr %3, align 8, !tbaa !3
  %53 = getelementptr inbounds nuw %struct.IDAMemRec, ptr %52, i32 0, i32 190
  %54 = load double, ptr %53, align 8, !tbaa !236
  %55 = load ptr, ptr %3, align 8, !tbaa !3
  %56 = getelementptr inbounds nuw %struct.IDAMemRec, ptr %55, i32 0, i32 43
  %57 = getelementptr inbounds [6 x ptr], ptr %56, i64 0, i64 0
  %58 = load ptr, ptr %57, align 8, !tbaa !93
  %59 = load ptr, ptr %3, align 8, !tbaa !3
  %60 = getelementptr inbounds nuw %struct.IDAMemRec, ptr %59, i32 0, i32 43
  %61 = getelementptr inbounds [6 x ptr], ptr %60, i64 0, i64 1
  %62 = load ptr, ptr %61, align 8, !tbaa !93
  %63 = load ptr, ptr %3, align 8, !tbaa !3
  %64 = getelementptr inbounds nuw %struct.IDAMemRec, ptr %63, i32 0, i32 193
  %65 = load ptr, ptr %64, align 8, !tbaa !126
  %66 = load ptr, ptr %3, align 8, !tbaa !3
  %67 = getelementptr inbounds nuw %struct.IDAMemRec, ptr %66, i32 0, i32 2
  %68 = load ptr, ptr %67, align 8, !tbaa !20
  %69 = call i32 %51(double noundef %54, ptr noundef %58, ptr noundef %62, ptr noundef %65, ptr noundef %68)
  store i32 %69, ptr %5, align 4, !tbaa !88
  %70 = load ptr, ptr %3, align 8, !tbaa !3
  %71 = getelementptr inbounds nuw %struct.IDAMemRec, ptr %70, i32 0, i32 200
  store i64 1, ptr %71, align 8, !tbaa !123
  %72 = load i32, ptr %5, align 4, !tbaa !88
  %73 = icmp ne i32 %72, 0
  br i1 %73, label %74, label %75

74:                                               ; preds = %27
  store i32 -10, ptr %2, align 4
  store i32 1, ptr %10, align 4
  br label %227

75:                                               ; preds = %27
  store i32 0, ptr %9, align 4, !tbaa !88
  store i32 0, ptr %4, align 4, !tbaa !88
  br label %76

76:                                               ; preds = %100, %75
  %77 = load i32, ptr %4, align 4, !tbaa !88
  %78 = load ptr, ptr %3, align 8, !tbaa !3
  %79 = getelementptr inbounds nuw %struct.IDAMemRec, ptr %78, i32 0, i32 187
  %80 = load i32, ptr %79, align 8, !tbaa !132
  %81 = icmp slt i32 %77, %80
  br i1 %81, label %82, label %103

82:                                               ; preds = %76
  %83 = load ptr, ptr %3, align 8, !tbaa !3
  %84 = getelementptr inbounds nuw %struct.IDAMemRec, ptr %83, i32 0, i32 193
  %85 = load ptr, ptr %84, align 8, !tbaa !126
  %86 = load i32, ptr %4, align 4, !tbaa !88
  %87 = sext i32 %86 to i64
  %88 = getelementptr inbounds double, ptr %85, i64 %87
  %89 = load double, ptr %88, align 8, !tbaa !92
  %90 = call double @SUNRabs(double noundef %89)
  %91 = fcmp oeq double %90, 0.000000e+00
  br i1 %91, label %92, label %99

92:                                               ; preds = %82
  store i32 1, ptr %9, align 4, !tbaa !88
  %93 = load ptr, ptr %3, align 8, !tbaa !3
  %94 = getelementptr inbounds nuw %struct.IDAMemRec, ptr %93, i32 0, i32 201
  %95 = load ptr, ptr %94, align 8, !tbaa !133
  %96 = load i32, ptr %4, align 4, !tbaa !88
  %97 = sext i32 %96 to i64
  %98 = getelementptr inbounds i32, ptr %95, i64 %97
  store i32 0, ptr %98, align 4, !tbaa !88
  br label %99

99:                                               ; preds = %92, %82
  br label %100

100:                                              ; preds = %99
  %101 = load i32, ptr %4, align 4, !tbaa !88
  %102 = add nsw i32 %101, 1
  store i32 %102, ptr %4, align 4, !tbaa !88
  br label %76, !llvm.loop !243

103:                                              ; preds = %76
  %104 = load i32, ptr %9, align 4, !tbaa !88
  %105 = icmp ne i32 %104, 0
  br i1 %105, label %107, label %106

106:                                              ; preds = %103
  store i32 0, ptr %2, align 4
  store i32 1, ptr %10, align 4
  br label %227

107:                                              ; preds = %103
  %108 = load ptr, ptr %3, align 8, !tbaa !3
  %109 = getelementptr inbounds nuw %struct.IDAMemRec, ptr %108, i32 0, i32 197
  %110 = load double, ptr %109, align 8, !tbaa !242
  %111 = load ptr, ptr %3, align 8, !tbaa !3
  %112 = getelementptr inbounds nuw %struct.IDAMemRec, ptr %111, i32 0, i32 110
  %113 = load double, ptr %112, align 8, !tbaa !228
  %114 = call double @SUNRabs(double noundef %113)
  %115 = fdiv double %110, %114
  %116 = fcmp ogt double %115, 1.000000e-01
  br i1 %116, label %117, label %126

117:                                              ; preds = %107
  %118 = load ptr, ptr %3, align 8, !tbaa !3
  %119 = getelementptr inbounds nuw %struct.IDAMemRec, ptr %118, i32 0, i32 197
  %120 = load double, ptr %119, align 8, !tbaa !242
  %121 = load ptr, ptr %3, align 8, !tbaa !3
  %122 = getelementptr inbounds nuw %struct.IDAMemRec, ptr %121, i32 0, i32 110
  %123 = load double, ptr %122, align 8, !tbaa !228
  %124 = call double @SUNRabs(double noundef %123)
  %125 = fdiv double %120, %124
  br label %127

126:                                              ; preds = %107
  br label %127

127:                                              ; preds = %126, %117
  %128 = phi double [ %125, %117 ], [ 1.000000e-01, %126 ]
  store double %128, ptr %7, align 8, !tbaa !92
  %129 = load double, ptr %7, align 8, !tbaa !92
  %130 = load ptr, ptr %3, align 8, !tbaa !3
  %131 = getelementptr inbounds nuw %struct.IDAMemRec, ptr %130, i32 0, i32 110
  %132 = load double, ptr %131, align 8, !tbaa !228
  %133 = fmul double %129, %132
  store double %133, ptr %6, align 8, !tbaa !92
  %134 = load ptr, ptr %3, align 8, !tbaa !3
  %135 = getelementptr inbounds nuw %struct.IDAMemRec, ptr %134, i32 0, i32 190
  %136 = load double, ptr %135, align 8, !tbaa !236
  %137 = load double, ptr %6, align 8, !tbaa !92
  %138 = fadd double %136, %137
  store double %138, ptr %8, align 8, !tbaa !92
  %139 = load ptr, ptr %3, align 8, !tbaa !3
  %140 = getelementptr inbounds nuw %struct.IDAMemRec, ptr %139, i32 0, i32 43
  %141 = getelementptr inbounds [6 x ptr], ptr %140, i64 0, i64 0
  %142 = load ptr, ptr %141, align 8, !tbaa !93
  %143 = load double, ptr %6, align 8, !tbaa !92
  %144 = load ptr, ptr %3, align 8, !tbaa !3
  %145 = getelementptr inbounds nuw %struct.IDAMemRec, ptr %144, i32 0, i32 43
  %146 = getelementptr inbounds [6 x ptr], ptr %145, i64 0, i64 1
  %147 = load ptr, ptr %146, align 8, !tbaa !93
  %148 = load ptr, ptr %3, align 8, !tbaa !3
  %149 = getelementptr inbounds nuw %struct.IDAMemRec, ptr %148, i32 0, i32 50
  %150 = load ptr, ptr %149, align 8, !tbaa !224
  call void @N_VLinearSum(double noundef 1.000000e+00, ptr noundef %142, double noundef %143, ptr noundef %147, ptr noundef %150)
  %151 = load ptr, ptr %3, align 8, !tbaa !3
  %152 = getelementptr inbounds nuw %struct.IDAMemRec, ptr %151, i32 0, i32 186
  %153 = load ptr, ptr %152, align 8, !tbaa !131
  %154 = load double, ptr %8, align 8, !tbaa !92
  %155 = load ptr, ptr %3, align 8, !tbaa !3
  %156 = getelementptr inbounds nuw %struct.IDAMemRec, ptr %155, i32 0, i32 50
  %157 = load ptr, ptr %156, align 8, !tbaa !224
  %158 = load ptr, ptr %3, align 8, !tbaa !3
  %159 = getelementptr inbounds nuw %struct.IDAMemRec, ptr %158, i32 0, i32 43
  %160 = getelementptr inbounds [6 x ptr], ptr %159, i64 0, i64 1
  %161 = load ptr, ptr %160, align 8, !tbaa !93
  %162 = load ptr, ptr %3, align 8, !tbaa !3
  %163 = getelementptr inbounds nuw %struct.IDAMemRec, ptr %162, i32 0, i32 194
  %164 = load ptr, ptr %163, align 8, !tbaa !127
  %165 = load ptr, ptr %3, align 8, !tbaa !3
  %166 = getelementptr inbounds nuw %struct.IDAMemRec, ptr %165, i32 0, i32 2
  %167 = load ptr, ptr %166, align 8, !tbaa !20
  %168 = call i32 %153(double noundef %154, ptr noundef %157, ptr noundef %161, ptr noundef %164, ptr noundef %167)
  store i32 %168, ptr %5, align 4, !tbaa !88
  %169 = load ptr, ptr %3, align 8, !tbaa !3
  %170 = getelementptr inbounds nuw %struct.IDAMemRec, ptr %169, i32 0, i32 200
  %171 = load i64, ptr %170, align 8, !tbaa !123
  %172 = add nsw i64 %171, 1
  store i64 %172, ptr %170, align 8, !tbaa !123
  %173 = load i32, ptr %5, align 4, !tbaa !88
  %174 = icmp ne i32 %173, 0
  br i1 %174, label %175, label %176

175:                                              ; preds = %127
  store i32 -10, ptr %2, align 4
  store i32 1, ptr %10, align 4
  br label %227

176:                                              ; preds = %127
  store i32 0, ptr %4, align 4, !tbaa !88
  br label %177

177:                                              ; preds = %223, %176
  %178 = load i32, ptr %4, align 4, !tbaa !88
  %179 = load ptr, ptr %3, align 8, !tbaa !3
  %180 = getelementptr inbounds nuw %struct.IDAMemRec, ptr %179, i32 0, i32 187
  %181 = load i32, ptr %180, align 8, !tbaa !132
  %182 = icmp slt i32 %178, %181
  br i1 %182, label %183, label %226

183:                                              ; preds = %177
  %184 = load ptr, ptr %3, align 8, !tbaa !3
  %185 = getelementptr inbounds nuw %struct.IDAMemRec, ptr %184, i32 0, i32 201
  %186 = load ptr, ptr %185, align 8, !tbaa !133
  %187 = load i32, ptr %4, align 4, !tbaa !88
  %188 = sext i32 %187 to i64
  %189 = getelementptr inbounds i32, ptr %186, i64 %188
  %190 = load i32, ptr %189, align 4, !tbaa !88
  %191 = icmp ne i32 %190, 0
  br i1 %191, label %222, label %192

192:                                              ; preds = %183
  %193 = load ptr, ptr %3, align 8, !tbaa !3
  %194 = getelementptr inbounds nuw %struct.IDAMemRec, ptr %193, i32 0, i32 194
  %195 = load ptr, ptr %194, align 8, !tbaa !127
  %196 = load i32, ptr %4, align 4, !tbaa !88
  %197 = sext i32 %196 to i64
  %198 = getelementptr inbounds double, ptr %195, i64 %197
  %199 = load double, ptr %198, align 8, !tbaa !92
  %200 = call double @SUNRabs(double noundef %199)
  %201 = fcmp une double %200, 0.000000e+00
  br i1 %201, label %202, label %222

202:                                              ; preds = %192
  %203 = load ptr, ptr %3, align 8, !tbaa !3
  %204 = getelementptr inbounds nuw %struct.IDAMemRec, ptr %203, i32 0, i32 201
  %205 = load ptr, ptr %204, align 8, !tbaa !133
  %206 = load i32, ptr %4, align 4, !tbaa !88
  %207 = sext i32 %206 to i64
  %208 = getelementptr inbounds i32, ptr %205, i64 %207
  store i32 1, ptr %208, align 4, !tbaa !88
  %209 = load ptr, ptr %3, align 8, !tbaa !3
  %210 = getelementptr inbounds nuw %struct.IDAMemRec, ptr %209, i32 0, i32 194
  %211 = load ptr, ptr %210, align 8, !tbaa !127
  %212 = load i32, ptr %4, align 4, !tbaa !88
  %213 = sext i32 %212 to i64
  %214 = getelementptr inbounds double, ptr %211, i64 %213
  %215 = load double, ptr %214, align 8, !tbaa !92
  %216 = load ptr, ptr %3, align 8, !tbaa !3
  %217 = getelementptr inbounds nuw %struct.IDAMemRec, ptr %216, i32 0, i32 193
  %218 = load ptr, ptr %217, align 8, !tbaa !126
  %219 = load i32, ptr %4, align 4, !tbaa !88
  %220 = sext i32 %219 to i64
  %221 = getelementptr inbounds double, ptr %218, i64 %220
  store double %215, ptr %221, align 8, !tbaa !92
  br label %222

222:                                              ; preds = %202, %192, %183
  br label %223

223:                                              ; preds = %222
  %224 = load i32, ptr %4, align 4, !tbaa !88
  %225 = add nsw i32 %224, 1
  store i32 %225, ptr %4, align 4, !tbaa !88
  br label %177, !llvm.loop !244

226:                                              ; preds = %177
  store i32 0, ptr %2, align 4
  store i32 1, ptr %10, align 4
  br label %227

227:                                              ; preds = %226, %175, %106, %74
  call void @llvm.lifetime.end.p0(i64 4, ptr %9) #8
  call void @llvm.lifetime.end.p0(i64 8, ptr %8) #8
  call void @llvm.lifetime.end.p0(i64 8, ptr %7) #8
  call void @llvm.lifetime.end.p0(i64 8, ptr %6) #8
  call void @llvm.lifetime.end.p0(i64 4, ptr %5) #8
  call void @llvm.lifetime.end.p0(i64 4, ptr %4) #8
  %228 = load i32, ptr %2, align 4
  ret i32 %228
}