; Function Attrs: nounwind uwtable
define internal fastcc range(i32 -10, 1) i32 @IDARcheck1(ptr noundef nonnull captures(none) %0) unnamed_addr #0 {
  %2 = getelementptr inbounds nuw i8, ptr %0, i64 1696
  %3 = load i32, ptr %2, align 8, !tbaa !108
  %4 = icmp sgt i32 %3, 0
  br i1 %4, label %.lr.ph, label %._crit_edge

.lr.ph:                                           ; preds = %1
  %5 = getelementptr inbounds nuw i8, ptr %0, i64 1704
  %6 = load ptr, ptr %5, align 8, !tbaa !195
  br label %7

7:                                                ; preds = %.lr.ph, %7
  %indvars.iv = phi i64 [ 0, %.lr.ph ], [ %indvars.iv.next, %7 ]
  %8 = getelementptr inbounds nuw i32, ptr %6, i64 %indvars.iv
  store i32 0, ptr %8, align 4, !tbaa !62
  %indvars.iv.next = add nuw nsw i64 %indvars.iv, 1
  %9 = load i32, ptr %2, align 8, !tbaa !108
  %10 = sext i32 %9 to i64
  %11 = icmp slt i64 %indvars.iv.next, %10
  br i1 %11, label %7, label %._crit_edge, !llvm.loop !283

._crit_edge:                                      ; preds = %7, %1
  %12 = getelementptr inbounds nuw i8, ptr %0, i64 1184
  %13 = load double, ptr %12, align 8, !tbaa !98
  %14 = getelementptr inbounds nuw i8, ptr %0, i64 1720
  store double %13, ptr %14, align 8, !tbaa !217
  %15 = tail call double @SUNRabs(double noundef %13) #13
  %16 = getelementptr inbounds nuw i8, ptr %0, i64 1168
  %17 = load double, ptr %16, align 8, !tbaa !205
  %18 = tail call double @SUNRabs(double noundef %17) #13
  %19 = fadd double %15, %18
  %20 = load double, ptr %0, align 8, !tbaa !3
  %21 = fmul double %19, %20
  %22 = fmul double %21, 1.000000e+02
  %23 = getelementptr inbounds nuw i8, ptr %0, i64 1776
  store double %22, ptr %23, align 8, !tbaa !284
  %24 = getelementptr inbounds nuw i8, ptr %0, i64 1688
  %25 = load ptr, ptr %24, align 8, !tbaa !107
  %26 = load double, ptr %14, align 8, !tbaa !217
  %27 = getelementptr inbounds nuw i8, ptr %0, i64 312
  %28 = load ptr, ptr %27, align 8, !tbaa !57
  %29 = getelementptr inbounds nuw i8, ptr %0, i64 320
  %30 = load ptr, ptr %29, align 8, !tbaa !57
  %31 = getelementptr inbounds nuw i8, ptr %0, i64 1744
  %32 = load ptr, ptr %31, align 8, !tbaa !192
  %33 = getelementptr inbounds nuw i8, ptr %0, i64 16
  %34 = load ptr, ptr %33, align 8, !tbaa !66
  %35 = tail call i32 %25(double noundef %26, ptr noundef %28, ptr noundef %30, ptr noundef %32, ptr noundef %34) #13
  %36 = getelementptr inbounds nuw i8, ptr %0, i64 1792
  store i64 1, ptr %36, align 8, !tbaa !113
  %.not = icmp eq i32 %35, 0
  br i1 %.not, label %.preheader66, label %.loopexit

.preheader66:                                     ; preds = %._crit_edge
  %37 = load i32, ptr %2, align 8, !tbaa !108
  %38 = icmp sgt i32 %37, 0
  br i1 %38, label %.lr.ph70, label %.loopexit

.lr.ph70:                                         ; preds = %.preheader66
  %39 = getelementptr inbounds nuw i8, ptr %0, i64 1800
  br label %.outer

.outer:                                           ; preds = %.thread, %.lr.ph70
  %indvars.iv75.ph = phi i64 [ %indvars.iv.next7683, %.thread ], [ 0, %.lr.ph70 ]
  %40 = phi i1 [ false, %.thread ], [ true, %.lr.ph70 ]
  br label %41

41:                                               ; preds = %.outer, %47
  %indvars.iv75 = phi i64 [ %indvars.iv.next76, %47 ], [ %indvars.iv75.ph, %.outer ]
  %42 = load ptr, ptr %31, align 8, !tbaa !192
  %43 = getelementptr inbounds nuw double, ptr %42, i64 %indvars.iv75
  %44 = load double, ptr %43, align 8, !tbaa !60
  %45 = tail call double @SUNRabs(double noundef %44) #13
  %46 = fcmp oeq double %45, 0.000000e+00
  br i1 %46, label %.thread, label %47

47:                                               ; preds = %41
  %indvars.iv.next76 = add nuw nsw i64 %indvars.iv75, 1
  %48 = load i32, ptr %2, align 8, !tbaa !108
  %49 = sext i32 %48 to i64
  %50 = icmp slt i64 %indvars.iv.next76, %49
  br i1 %50, label %41, label %._crit_edge71, !llvm.loop !285

.thread:                                          ; preds = %41
  %51 = load ptr, ptr %39, align 8, !tbaa !197
  %52 = getelementptr inbounds nuw i32, ptr %51, i64 %indvars.iv75
  store i32 0, ptr %52, align 4, !tbaa !62
  %indvars.iv.next7683 = add nuw nsw i64 %indvars.iv75, 1
  %53 = load i32, ptr %2, align 8, !tbaa !108
  %54 = sext i32 %53 to i64
  %55 = icmp slt i64 %indvars.iv.next7683, %54
  br i1 %55, label %.outer, label %._crit_edge71.thread85, !llvm.loop !285

._crit_edge71:                                    ; preds = %47
  br i1 %40, label %.loopexit, label %._crit_edge71.thread85

._crit_edge71.thread85:                           ; preds = %.thread, %._crit_edge71
  %56 = load double, ptr %23, align 8, !tbaa !284
  %57 = load double, ptr %16, align 8, !tbaa !205
  %58 = tail call double @SUNRabs(double noundef %57) #13
  %59 = fdiv double %56, %58
  %60 = fcmp ogt double %59, 1.000000e-01
  br i1 %60, label %61, label %66

61:                                               ; preds = %._crit_edge71.thread85
  %62 = load double, ptr %23, align 8, !tbaa !284
  %63 = load double, ptr %16, align 8, !tbaa !205
  %64 = tail call double @SUNRabs(double noundef %63) #13
  %65 = fdiv double %62, %64
  br label %66

66:                                               ; preds = %._crit_edge71.thread85, %61
  %67 = phi double [ %65, %61 ], [ 1.000000e-01, %._crit_edge71.thread85 ]
  %68 = load double, ptr %16, align 8, !tbaa !205
  %69 = fmul double %67, %68
  %70 = load double, ptr %14, align 8, !tbaa !217
  %71 = fadd double %70, %69
  %72 = load ptr, ptr %27, align 8, !tbaa !57
  %73 = load ptr, ptr %29, align 8, !tbaa !57
  %74 = getelementptr inbounds nuw i8, ptr %0, i64 608
  %75 = load ptr, ptr %74, align 8, !tbaa !199
  tail call void @N_VLinearSum(double noundef 1.000000e+00, ptr noundef %72, double noundef %69, ptr noundef %73, ptr noundef %75) #13
  %76 = load ptr, ptr %24, align 8, !tbaa !107
  %77 = load ptr, ptr %74, align 8, !tbaa !199
  %78 = load ptr, ptr %29, align 8, !tbaa !57
  %79 = getelementptr inbounds nuw i8, ptr %0, i64 1752
  %80 = load ptr, ptr %79, align 8, !tbaa !193
  %81 = load ptr, ptr %33, align 8, !tbaa !66
  %82 = tail call i32 %76(double noundef %71, ptr noundef %77, ptr noundef %78, ptr noundef %80, ptr noundef %81) #13
  %83 = load i64, ptr %36, align 8, !tbaa !113
  %84 = add nsw i64 %83, 1
  store i64 %84, ptr %36, align 8, !tbaa !113
  %.not64 = icmp eq i32 %82, 0
  br i1 %.not64, label %.preheader, label %.loopexit

.preheader:                                       ; preds = %66
  %85 = load i32, ptr %2, align 8, !tbaa !108
  %86 = icmp sgt i32 %85, 0
  br i1 %86, label %.lr.ph73, label %.loopexit

.lr.ph73:                                         ; preds = %.preheader
  %87 = getelementptr inbounds nuw i8, ptr %0, i64 1800
  br label %88

88:                                               ; preds = %.lr.ph73, %106
  %indvars.iv78 = phi i64 [ 0, %.lr.ph73 ], [ %indvars.iv.next79, %106 ]
  %89 = load ptr, ptr %87, align 8, !tbaa !197
  %90 = getelementptr inbounds nuw i32, ptr %89, i64 %indvars.iv78
  %91 = load i32, ptr %90, align 4, !tbaa !62
  %.not65 = icmp eq i32 %91, 0
  br i1 %.not65, label %92, label %106

92:                                               ; preds = %88
  %93 = load ptr, ptr %79, align 8, !tbaa !193
  %94 = getelementptr inbounds nuw double, ptr %93, i64 %indvars.iv78
  %95 = load double, ptr %94, align 8, !tbaa !60
  %96 = tail call double @SUNRabs(double noundef %95) #13
  %97 = fcmp une double %96, 0.000000e+00
  br i1 %97, label %98, label %106

98:                                               ; preds = %92
  %99 = load ptr, ptr %87, align 8, !tbaa !197
  %100 = getelementptr inbounds nuw i32, ptr %99, i64 %indvars.iv78
  store i32 1, ptr %100, align 4, !tbaa !62
  %101 = load ptr, ptr %79, align 8, !tbaa !193
  %102 = getelementptr inbounds nuw double, ptr %101, i64 %indvars.iv78
  %103 = load double, ptr %102, align 8, !tbaa !60
  %104 = load ptr, ptr %31, align 8, !tbaa !192
  %105 = getelementptr inbounds nuw double, ptr %104, i64 %indvars.iv78
  store double %103, ptr %105, align 8, !tbaa !60
  br label %106

106:                                              ; preds = %88, %92, %98
  %indvars.iv.next79 = add nuw nsw i64 %indvars.iv78, 1
  %107 = load i32, ptr %2, align 8, !tbaa !108
  %108 = sext i32 %107 to i64
  %109 = icmp slt i64 %indvars.iv.next79, %108
  br i1 %109, label %88, label %.loopexit, !llvm.loop !286

.loopexit:                                        ; preds = %106, %.preheader66, %.preheader, %66, %._crit_edge71, %._crit_edge
  %.060 = phi i32 [ -10, %._crit_edge ], [ 0, %._crit_edge71 ], [ -10, %66 ], [ 0, %.preheader ], [ 0, %.preheader66 ], [ 0, %106 ]
  ret i32 %.060
}